target datalayout = "e-m:e-p270:32:32-p271:32:32-p272:64:64-i64:64-i128:128-f80:128-n8:16:32:64-S128"
target triple = "x86_64-pc-linux-gnu"

%struct.H5D_farray_filt_elmt_t = type { i64, i32, i32 }
%struct.H5D_farray_ctx_t = type { i64, i64 }

; Function Attrs: nounwind uwtable
define internal i32 @H5D__farray_filt_encode(ptr noundef %0, ptr noundef %1, i64 noundef %2, ptr noundef %3) #0 {
  %5 = alloca ptr, align 8
  %6 = alloca ptr, align 8
  %7 = alloca i64, align 8
  %8 = alloca ptr, align 8
  %9 = alloca ptr, align 8
  %10 = alloca ptr, align 8
  %11 = alloca ptr, align 8
  %12 = alloca i64, align 8
  %13 = alloca i64, align 8
  %14 = alloca ptr, align 8
  store ptr %0, ptr %5, align 8
  store ptr %1, ptr %6, align 8
  store i64 %2, ptr %7, align 8
  store ptr %3, ptr %8, align 8
  %15 = load ptr, ptr %8, align 8
  store ptr %15, ptr %9, align 8
  %16 = load ptr, ptr %5, align 8
  store ptr %16, ptr %10, align 8
  %17 = load ptr, ptr %6, align 8
  store ptr %17, ptr %11, align 8
  br label %18

18:                                               ; preds = %94, %4
  %19 = load i64, ptr %7, align 8
  %20 = icmp ne i64 %19, 0
  br i1 %20, label %21, label %99

21:                                               ; preds = %18
  %22 = load ptr, ptr %9, align 8
  %23 = getelementptr inbounds %struct.H5D_farray_ctx_t, ptr %22, i32 0, i32 0
  %24 = load i64, ptr %23, align 8
  %25 = load ptr, ptr %11, align 8
  %26 = getelementptr inbounds %struct.H5D_farray_filt_elmt_t, ptr %25, i32 0, i32 0
  %27 = load i64, ptr %26, align 8
  call void @H5F_addr_encode_len(i64 noundef %24, ptr noundef %10, i64 noundef %27)
  br label %28

28:                                               ; preds = %21
  %29 = load ptr, ptr %11, align 8
  %30 = getelementptr inbounds %struct.H5D_farray_filt_elmt_t, ptr %29, i32 0, i32 1
  %31 = load i32, ptr %30, align 8
  %32 = zext i32 %31 to i64
  store i64 %32, ptr %12, align 8
  %33 = load ptr, ptr %10, align 8
  store ptr %33, ptr %14, align 8
  store i64 0, ptr %13, align 8
  br label %34

34:                                               ; preds = %46, %28
  %35 = load i64, ptr %13, align 8
  %36 = load ptr, ptr %9, align 8
  %37 = getelementptr inbounds %struct.H5D_farray_ctx_t, ptr %36, i32 0, i32 1
  %38 = load i64, ptr %37, align 8
  %39 = icmp ult i64 %35, %38
  br i1 %39, label %40, label %51

40:                                               ; preds = %34
  %41 = load i64, ptr %12, align 8
  %42 = and i64 %41, 255
  %43 = trunc i64 %42 to i8
  %44 = load ptr, ptr %14, align 8
  %45 = getelementptr inbounds i8, ptr %44, i32 1
  store ptr %45, ptr %14, align 8
  store i8 %43, ptr %44, align 1
  br label %46

46:                                               ; preds = %40
  %47 = load i64, ptr %13, align 8
  %48 = add i64 %47, 1
  store i64 %48, ptr %13, align 8
  %49 = load i64, ptr %12, align 8
  %50 = lshr i64 %49, 8
  store i64 %50, ptr %12, align 8
  br label %34

51:                                               ; preds = %34
  %52 = load ptr, ptr %10, align 8
  %53 = load ptr, ptr %9, align 8
  %54 = getelementptr inbounds %struct.H5D_farray_ctx_t, ptr %53, i32 0, i32 1
  %55 = load i64, ptr %54, align 8
  %56 = getelementptr inbounds i8, ptr %52, i64 %55
  store ptr %56, ptr %10, align 8
  br label %57

57:                                               ; preds = %51
  br label %58

58:                                               ; preds = %57
  %59 = load ptr, ptr %11, align 8
  %60 = getelementptr inbounds %struct.H5D_farray_filt_elmt_t, ptr %59, i32 0, i32 2
  %61 = load i32, ptr %60, align 4
  %62 = and i32 %61, 255
  %63 = trunc i32 %62 to i8
  %64 = load ptr, ptr %10, align 8
  store i8 %63, ptr %64, align 1
  %65 = load ptr, ptr %10, align 8
  %66 = getelementptr inbounds i8, ptr %65, i32 1
  store ptr %66, ptr %10, align 8
  %67 = load ptr, ptr %11, align 8
  %68 = getelementptr inbounds %struct.H5D_farray_filt_elmt_t, ptr %67, i32 0, i32 2
  %69 = load i32, ptr %68, align 4
  %70 = lshr i32 %69, 8
  %71 = and i32 %70, 255
  %72 = trunc i32 %71 to i8
  %73 = load ptr, ptr %10, align 8
  store i8 %72, ptr %73, align 1
  %74 = load ptr, ptr %10, align 8
  %75 = getelementptr inbounds i8, ptr %74, i32 1
  store ptr %75, ptr %10, align 8
  %76 = load ptr, ptr %11, align 8
  %77 = getelementptr inbounds %struct.H5D_farray_filt_elmt_t, ptr %76, i32 0, i32 2
  %78 = load i32, ptr %77, align 4
  %79 = lshr i32 %78, 16
  %80 = and i32 %79, 255
  %81 = trunc i32 %80 to i8
  %82 = load ptr, ptr %10, align 8
  store i8 %81, ptr %82, align 1
  %83 = load ptr, ptr %10, align 8
  %84 = getelementptr inbounds i8, ptr %83, i32 1
  store ptr %84, ptr %10, align 8
  %85 = load ptr, ptr %11, align 8
  %86 = getelementptr inbounds %struct.H5D_farray_filt_elmt_t, ptr %85, i32 0, i32 2
  %87 = load i32, ptr %86, align 4
  %88 = lshr i32 %87, 24
  %89 = and i32 %88, 255
  %90 = trunc i32 %89 to i8
  %91 = load ptr, ptr %10, align 8
  store i8 %90, ptr %91, align 1
  %92 = load ptr, ptr %10, align 8
  %93 = getelementptr inbounds i8, ptr %92, i32 1
  store ptr %93, ptr %10, align 8
  br label %94

94:                                               ; preds = %58
  %95 = load ptr, ptr %11, align 8
  %96 = getelementptr inbounds %struct.H5D_farray_filt_elmt_t, ptr %95, i32 1
  store ptr %96, ptr %11, align 8
  %97 = load i64, ptr %7, align 8
  %98 = add i64 %97, -1
  store i64 %98, ptr %7, align 8
  br label %18

99:                                               ; preds = %18
  ret i32 0
}