; Function Attrs: nounwind uwtable
define internal noundef i32 @H5D__farray_filt_encode(ptr noundef %0, ptr nocapture noundef readonly %1, i64 noundef %2, ptr nocapture noundef readonly %3) #1 {
  %5 = alloca ptr, align 8
  store ptr %0, ptr %5, align 8
  %.not27 = icmp eq i64 %2, 0
  br i1 %.not27, label %._crit_edge32, label %.lr.ph31

.lr.ph31:                                         ; preds = %4
  %6 = getelementptr inbounds i8, ptr %3, i64 8
  br label %7

7:                                                ; preds = %.lr.ph31, %._crit_edge
  %.02129 = phi ptr [ %1, %.lr.ph31 ], [ %42, %._crit_edge ]
  %.02228 = phi i64 [ %2, %.lr.ph31 ], [ %43, %._crit_edge ]
  %8 = load i64, ptr %3, align 8
  %9 = load i64, ptr %.02129, align 8
  call void @H5F_addr_encode_len(i64 noundef %8, ptr noundef nonnull %5, i64 noundef %9) #11
  %10 = load ptr, ptr %5, align 8
  %11 = load i64, ptr %6, align 8
  %.not33 = icmp eq i64 %11, 0
  br i1 %.not33, label %._crit_edge, label %.lr.ph.preheader

.lr.ph.preheader:                                 ; preds = %7
  %12 = getelementptr inbounds i8, ptr %.02129, i64 8
  %13 = load i32, ptr %12, align 8
  br label %.lr.ph

.lr.ph:                                           ; preds = %.lr.ph.preheader, %.lr.ph
  %.026 = phi ptr [ %15, %.lr.ph ], [ %10, %.lr.ph.preheader ]
  %.01925 = phi i64 [ %16, %.lr.ph ], [ 0, %.lr.ph.preheader ]
  %.02024 = phi i32 [ %17, %.lr.ph ], [ %13, %.lr.ph.preheader ]
  %14 = trunc i32 %.02024 to i8
  %15 = getelementptr inbounds i8, ptr %.026, i64 1
  store i8 %14, ptr %.026, align 1
  %16 = add nuw i64 %.01925, 1
  %17 = lshr i32 %.02024, 8
  %18 = load i64, ptr %6, align 8
  %19 = icmp ult i64 %16, %18
  br i1 %19, label %.lr.ph, label %._crit_edge.loopexit

._crit_edge.loopexit:                             ; preds = %.lr.ph
  %.pre = load ptr, ptr %5, align 8
  br label %._crit_edge

._crit_edge:                                      ; preds = %._crit_edge.loopexit, %7
  %20 = phi ptr [ %10, %7 ], [ %.pre, %._crit_edge.loopexit ]
  %.lcssa = phi i64 [ 0, %7 ], [ %18, %._crit_edge.loopexit ]
  %21 = getelementptr inbounds i8, ptr %20, i64 %.lcssa
  store ptr %21, ptr %5, align 8
  %22 = getelementptr inbounds i8, ptr %.02129, i64 12
  %23 = load i32, ptr %22, align 4
  %24 = trunc i32 %23 to i8
  store i8 %24, ptr %21, align 1
  %25 = load ptr, ptr %5, align 8
  %26 = getelementptr inbounds i8, ptr %25, i64 1
  store ptr %26, ptr %5, align 8
  %27 = load i32, ptr %22, align 4
  %28 = lshr i32 %27, 8
  %29 = trunc i32 %28 to i8
  store i8 %29, ptr %26, align 1
  %30 = load ptr, ptr %5, align 8
  %31 = getelementptr inbounds i8, ptr %30, i64 1
  store ptr %31, ptr %5, align 8
  %32 = load i32, ptr %22, align 4
  %33 = lshr i32 %32, 16
  %34 = trunc i32 %33 to i8
  store i8 %34, ptr %31, align 1
  %35 = load ptr, ptr %5, align 8
  %36 = getelementptr inbounds i8, ptr %35, i64 1
  store ptr %36, ptr %5, align 8
  %37 = load i32, ptr %22, align 4
  %38 = lshr i32 %37, 24
  %39 = trunc nuw i32 %38 to i8
  store i8 %39, ptr %36, align 1
  %40 = load ptr, ptr %5, align 8
  %41 = getelementptr inbounds i8, ptr %40, i64 1
  store ptr %41, ptr %5, align 8
  %42 = getelementptr inbounds i8, ptr %.02129, i64 16
  %43 = add i64 %.02228, -1
  %.not = icmp eq i64 %43, 0
  br i1 %.not, label %._crit_edge32, label %7

._crit_edge32:                                    ; preds = %._crit_edge, %4
  ret i32 0
}